; Function Attrs: mustprogress uwtable
define internal fastcc void @_ZZN8facebook5velox12_GLOBAL__N_110castToJsonILNS0_8TypeKindE9ETnNSt9enable_ifIXsr10TypeTraitsIXT_EEE15isPrimitiveTypeEiE4typeELi0EEEvRKNS0_10BaseVectorERNS0_4exec7EvalCtxERKNS0_17SelectivityVectorERNS0_10FlatVectorINS0_10StringViewEEEbENKUlT_E_clIiEEDaSK_(ptr nocapture noundef nonnull readonly align 8 dereferenceable(32) %this, i32 noundef %row) unnamed_addr #0 align 2 personality ptr @__gxx_personality_v0 {
entry:
  %value.i = alloca %"struct.facebook::velox::Timestamp", align 8
  %ref.tmp.i = alloca %"class.std::__cxx11::basic_string", align 8
  %agg.tmp3 = alloca %"struct.facebook::velox::StringView", align 8
  %0 = load ptr, ptr %this, align 8
  %1 = load ptr, ptr %0, align 8
  %vtable = load ptr, ptr %1, align 8
  %vfn = getelementptr inbounds i8, ptr %vtable, i64 32
  %2 = load ptr, ptr %vfn, align 8
  %call = tail call noundef zeroext i1 %2(ptr noundef nonnull align 8 dereferenceable(99) %1, i32 noundef %row)
  br i1 %call, label %if.then, label %if.else

if.then:                                          ; preds = %entry
  %3 = getelementptr inbounds i8, ptr %this, i64 8
  %4 = load ptr, ptr %3, align 8
  tail call void @_ZN8facebook5velox10FlatVectorINS0_10StringViewEE3setEiS2_(ptr noundef nonnull align 8 dereferenceable(280) %4, i32 noundef %row, i64 7812748568887820292, ptr null)
  br label %if.end

if.else:                                          ; preds = %entry
  %5 = getelementptr inbounds i8, ptr %this, i64 16
  %6 = load ptr, ptr %5, align 8
  tail call void @_ZNSt7__cxx1112basic_stringIcSt11char_traitsIcESaIcEE5clearEv(ptr noundef nonnull align 8 dereferenceable(32) %6) #33
  %7 = load ptr, ptr %this, align 8
  %8 = load ptr, ptr %7, align 8
  %9 = load ptr, ptr %5, align 8
  call void @llvm.lifetime.start.p0(i64 16, ptr nonnull %value.i)
  call void @llvm.lifetime.start.p0(i64 32, ptr nonnull %ref.tmp.i)
  %vtable.i = load ptr, ptr %8, align 8
  %vfn.i = getelementptr inbounds i8, ptr %vtable.i, i64 352
  %10 = load ptr, ptr %vfn.i, align 8
  %call.i4 = tail call { i64, i64 } %10(ptr noundef nonnull align 8 dereferenceable(160) %8, i32 noundef %row)
  %11 = extractvalue { i64, i64 } %call.i4, 0
  store i64 %11, ptr %value.i, align 8
  %12 = getelementptr inbounds i8, ptr %value.i, i64 8
  %13 = extractvalue { i64, i64 } %call.i4, 1
  store i64 %13, ptr %12, align 8
  call void @_ZSt9to_stringB5cxx11RKN8facebook5velox9TimestampE(ptr nonnull sret(%"class.std::__cxx11::basic_string") align 8 %ref.tmp.i, ptr noundef nonnull align 8 dereferenceable(16) %value.i)
  %call1.i = invoke noundef nonnull align 8 dereferenceable(32) ptr @_ZNSt7__cxx1112basic_stringIcSt11char_traitsIcESaIcEE6appendERKS4_(ptr noundef nonnull align 8 dereferenceable(32) %9, ptr noundef nonnull align 8 dereferenceable(32) %ref.tmp.i)
          to label %_ZN8facebook5velox12_GLOBAL__N_117generateJsonTypedINS0_9TimestampELb0EEEvRKNS0_12SimpleVectorIT_EEiRNSt7__cxx1112basic_stringIcSt11char_traitsIcESaIcEEERKSt10shared_ptrIKNS0_4TypeEE.exit unwind label %lpad.i

lpad.i:                                           ; preds = %if.else
  %14 = landingpad { ptr, i32 }
          cleanup
  call void @_ZNSt7__cxx1112basic_stringIcSt11char_traitsIcESaIcEED1Ev(ptr noundef nonnull align 8 dereferenceable(32) %ref.tmp.i) #33
  resume { ptr, i32 } %14

_ZN8facebook5velox12_GLOBAL__N_117generateJsonTypedINS0_9TimestampELb0EEEvRKNS0_12SimpleVectorIT_EEiRNSt7__cxx1112basic_stringIcSt11char_traitsIcESaIcEEERKSt10shared_ptrIKNS0_4TypeEE.exit: ; preds = %if.else
  call void @_ZNSt7__cxx1112basic_stringIcSt11char_traitsIcESaIcEED1Ev(ptr noundef nonnull align 8 dereferenceable(32) %ref.tmp.i) #33
  call void @llvm.lifetime.end.p0(i64 16, ptr nonnull %value.i)
  call void @llvm.lifetime.end.p0(i64 32, ptr nonnull %ref.tmp.i)
  %15 = getelementptr inbounds i8, ptr %this, i64 8
  %16 = load ptr, ptr %15, align 8
  %17 = load ptr, ptr %5, align 8
  %call.i5 = call noundef ptr @_ZNKSt7__cxx1112basic_stringIcSt11char_traitsIcESaIcEE4dataEv(ptr noundef nonnull align 8 dereferenceable(32) %17) #33
  %call2.i = call noundef i64 @_ZNKSt7__cxx1112basic_stringIcSt11char_traitsIcESaIcEE4sizeEv(ptr noundef nonnull align 8 dereferenceable(32) %17) #33
  %conv.i6 = trunc i64 %call2.i to i32
  store i32 %conv.i6, ptr %agg.tmp3, align 8
  %cmp.i.i7 = icmp slt i32 %conv.i6, 0
  br i1 %cmp.i.i7, label %if.then.i.i18, label %if.end.i.i8

if.then.i.i18:                                    ; preds = %_ZN8facebook5velox12_GLOBAL__N_117generateJsonTypedINS0_9TimestampELb0EEEvRKNS0_12SimpleVectorIT_EEiRNSt7__cxx1112basic_stringIcSt11char_traitsIcESaIcEEERKSt10shared_ptrIKNS0_4TypeEE.exit
  call void @llvm.trap()
  unreachable

if.end.i.i8:                                      ; preds = %_ZN8facebook5velox12_GLOBAL__N_117generateJsonTypedINS0_9TimestampELb0EEEvRKNS0_12SimpleVectorIT_EEiRNSt7__cxx1112basic_stringIcSt11char_traitsIcESaIcEEERKSt10shared_ptrIKNS0_4TypeEE.exit
  %cmp.i.i.i.i9 = icmp ult i32 %conv.i6, 13
  br i1 %cmp.i.i.i.i9, label %if.then2.i.i13, label %if.else.i.i11

if.then2.i.i13:                                   ; preds = %if.end.i.i8
  %agg.tmp3.4.agg.tmp3.4.agg.tmp3.4.prefix_.i.i10.sroa_idx27 = getelementptr inbounds i8, ptr %agg.tmp3, i64 4
  store i32 0, ptr %agg.tmp3.4.agg.tmp3.4.agg.tmp3.4.prefix_.i.i10.sroa_idx27, align 4
  %cmp4.i.i14 = icmp eq i32 %conv.i6, 0
  br i1 %cmp4.i.i14, label %_ZN8facebook5velox10StringViewC2ERKNSt7__cxx1112basic_stringIcSt11char_traitsIcESaIcEEE.exit, label %if.end6.i.i15

if.end6.i.i15:                                    ; preds = %if.then2.i.i13
  %agg.tmp3.8.agg.tmp3.8.agg.tmp3.8.value_7.i.i16.sroa_idx = getelementptr inbounds i8, ptr %agg.tmp3, i64 8
  store ptr null, ptr %agg.tmp3.8.agg.tmp3.8.agg.tmp3.8.value_7.i.i16.sroa_idx, align 8
  %conv.i.i17 = and i64 %call2.i, 15
  %agg.tmp3.4.agg.tmp3.4.agg.tmp3.4.prefix_.i.i10.sroa_idx = getelementptr inbounds i8, ptr %agg.tmp3, i64 4
  call void @llvm.memcpy.p0.p0.i64(ptr nonnull align 4 %agg.tmp3.4.agg.tmp3.4.agg.tmp3.4.prefix_.i.i10.sroa_idx, ptr align 1 %call.i5, i64 %conv.i.i17, i1 false)
  %agg.tmp3.8.agg.tmp3.8.agg.tmp3.8.value_7.i.i16.sroa_idx28 = getelementptr inbounds i8, ptr %agg.tmp3, i64 8
  %agg.tmp3.8.agg.tmp3.8.agg.tmp3.8..pre = load ptr, ptr %agg.tmp3.8.agg.tmp3.8.agg.tmp3.8.value_7.i.i16.sroa_idx28, align 8
  br label %_ZN8facebook5velox10StringViewC2ERKNSt7__cxx1112basic_stringIcSt11char_traitsIcESaIcEEE.exit

if.else.i.i11:                                    ; preds = %if.end.i.i8
  %18 = load i32, ptr %call.i5, align 1
  %agg.tmp3.4.agg.tmp3.4.agg.tmp3.4.prefix_.i.i10.sroa_idx26 = getelementptr inbounds i8, ptr %agg.tmp3, i64 4
  store i32 %18, ptr %agg.tmp3.4.agg.tmp3.4.agg.tmp3.4.prefix_.i.i10.sroa_idx26, align 4
  br label %_ZN8facebook5velox10StringViewC2ERKNSt7__cxx1112basic_stringIcSt11char_traitsIcESaIcEEE.exit

_ZN8facebook5velox10StringViewC2ERKNSt7__cxx1112basic_stringIcSt11char_traitsIcESaIcEEE.exit: ; preds = %if.then2.i.i13, %if.end6.i.i15, %if.else.i.i11
  %agg.tmp3.8.agg.tmp3.8. = phi ptr [ undef, %if.then2.i.i13 ], [ %agg.tmp3.8.agg.tmp3.8.agg.tmp3.8..pre, %if.end6.i.i15 ], [ %call.i5, %if.else.i.i11 ]
  %agg.tmp3.0.agg.tmp3.0.agg.tmp3.0. = load i64, ptr %agg.tmp3, align 8
  call void @_ZN8facebook5velox10FlatVectorINS0_10StringViewEE3setEiS2_(ptr noundef nonnull align 8 dereferenceable(280) %16, i32 noundef %row, i64 %agg.tmp3.0.agg.tmp3.0.agg.tmp3.0., ptr %agg.tmp3.8.agg.tmp3.8.)
  br label %if.end

if.end:                                           ; preds = %_ZN8facebook5velox10StringViewC2ERKNSt7__cxx1112basic_stringIcSt11char_traitsIcESaIcEEE.exit, %if.then
  ret void
}